; ModuleID = 'source-C-CXX/4/1046.c'
source_filename = "source-C-CXX/4/1046.c"
target datalayout = "e-m:e-p270:32:32-p271:32:32-p272:64:64-i64:64-f80:128-n8:16:32:64-S128"
target triple = "x86_64-pc-linux-gnu"

@.str = private unnamed_addr constant [4 x i8] c"%lf\00", align 1
@.str.1 = private unnamed_addr constant [3 x i8] c"%s\00", align 1
@.str.2 = private unnamed_addr constant [6 x i8] c"error\00", align 1
@.str.3 = private unnamed_addr constant [4 x i8] c"yes\00", align 1
@.str.4 = private unnamed_addr constant [3 x i8] c"no\00", align 1

; Function Attrs: nofree nounwind sspstrong uwtable
define dso_local i32 @main() local_unnamed_addr #0 {
  %1 = alloca [501 x i8], align 16
  %2 = alloca [501 x i8], align 16
  %3 = alloca double, align 8
  %4 = getelementptr inbounds [501 x i8], [501 x i8]* %1, i64 0, i64 0
  call void @llvm.lifetime.start.p0i8(i64 501, i8* nonnull %4) #4
  %5 = getelementptr inbounds [501 x i8], [501 x i8]* %2, i64 0, i64 0
  call void @llvm.lifetime.start.p0i8(i64 501, i8* nonnull %5) #4
  %6 = bitcast double* %3 to i8*
  call void @llvm.lifetime.start.p0i8(i64 8, i8* nonnull %6) #4
  %7 = call i32 (i8*, ...) @__isoc99_scanf(i8* getelementptr inbounds ([4 x i8], [4 x i8]* @.str, i64 0, i64 0), double* nonnull %3)
  %8 = call i32 (i8*, ...) @__isoc99_scanf(i8* getelementptr inbounds ([3 x i8], [3 x i8]* @.str.1, i64 0, i64 0), i8* nonnull %4)
  %9 = call i32 (i8*, ...) @__isoc99_scanf(i8* getelementptr inbounds ([3 x i8], [3 x i8]* @.str.1, i64 0, i64 0), i8* nonnull %5)
  %10 = call i64 @strlen(i8* noundef nonnull %4) #5
  %11 = uitofp i64 %10 to double
  %12 = call i64 @strlen(i8* noundef nonnull %5) #5
  %13 = trunc i64 %12 to i32
  %14 = sitofp i32 %13 to double
  %15 = fcmp une double %11, %14
  br i1 %15, label %40, label %16

16:                                               ; preds = %0
  %17 = icmp eq i64 %10, 0
  br i1 %17, label %34, label %18

18:                                               ; preds = %16, %26
  %19 = phi i64 [ %30, %26 ], [ 0, %16 ]
  %20 = phi double [ %29, %26 ], [ 0.000000e+00, %16 ]
  %21 = getelementptr inbounds [501 x i8], [501 x i8]* %1, i64 0, i64 %19
  %22 = load i8, i8* %21, align 1, !tbaa !5
  switch i8 %22, label %40 [
    i8 65, label %23
    i8 84, label %23
    i8 67, label %23
    i8 71, label %23
  ]

23:                                               ; preds = %18, %18, %18, %18
  %24 = getelementptr inbounds [501 x i8], [501 x i8]* %2, i64 0, i64 %19
  %25 = load i8, i8* %24, align 1, !tbaa !5
  switch i8 %25, label %40 [
    i8 65, label %26
    i8 84, label %26
    i8 67, label %26
    i8 71, label %26
  ]

26:                                               ; preds = %23, %23, %23, %23
  %27 = icmp eq i8 %22, %25
  %28 = fadd double %20, 1.000000e+00
  %29 = select i1 %27, double %28, double %20
  %30 = add nuw i64 %19, 1
  %31 = trunc i64 %30 to i32
  %32 = sitofp i32 %31 to double
  %33 = fcmp olt double %32, %11
  br i1 %33, label %18, label %34, !llvm.loop !8

34:                                               ; preds = %26, %16
  %35 = phi double [ 0.000000e+00, %16 ], [ %29, %26 ]
  %36 = fdiv double %35, %11
  %37 = load double, double* %3, align 8, !tbaa !10
  %38 = fcmp ogt double %36, %37
  %39 = select i1 %38, i8* getelementptr inbounds ([4 x i8], [4 x i8]* @.str.3, i64 0, i64 0), i8* getelementptr inbounds ([3 x i8], [3 x i8]* @.str.4, i64 0, i64 0)
  br label %40

40:                                               ; preds = %18, %23, %34, %0
  %41 = phi i8* [ getelementptr inbounds ([6 x i8], [6 x i8]* @.str.2, i64 0, i64 0), %0 ], [ %39, %34 ], [ getelementptr inbounds ([6 x i8], [6 x i8]* @.str.2, i64 0, i64 0), %23 ], [ getelementptr inbounds ([6 x i8], [6 x i8]* @.str.2, i64 0, i64 0), %18 ]
  %42 = call i32 (i8*, ...) @printf(i8* nonnull dereferenceable(1) %41)
  call void @llvm.lifetime.end.p0i8(i64 8, i8* nonnull %6) #4
  call void @llvm.lifetime.end.p0i8(i64 501, i8* nonnull %5) #4
  call void @llvm.lifetime.end.p0i8(i64 501, i8* nonnull %4) #4
  ret i32 0
}

; Function Attrs: argmemonly mustprogress nofree nosync nounwind willreturn
declare void @llvm.lifetime.start.p0i8(i64 immarg, i8* nocapture) #1

; Function Attrs: nofree nounwind
declare noundef i32 @__isoc99_scanf(i8* nocapture noundef readonly, ...) local_unnamed_addr #2

; Function Attrs: argmemonly mustprogress nofree nounwind readonly willreturn
declare i64 @strlen(i8* nocapture) local_unnamed_addr #3

; Function Attrs: nofree nounwind
declare noundef i32 @printf(i8* nocapture noundef readonly, ...) local_unnamed_addr #2

; Function Attrs: argmemonly mustprogress nofree nosync nounwind willreturn
declare void @llvm.lifetime.end.p0i8(i64 immarg, i8* nocapture) #1


!llvm.module.flags = !{!0, !1, !2, !3}
!llvm.ident = !{!4}

!0 = !{i32 1, !"wchar_size", i32 4}
!1 = !{i32 7, !"PIC Level", i32 2}
!2 = !{i32 7, !"PIE Level", i32 2}
!3 = !{i32 7, !"uwtable", i32 1}
!4 = !{!"clang version 13.0.0"}
!5 = !{!6, !6, i64 0}
!6 = !{!"omnipotent char", !7, i64 0}
!7 = !{!"Simple C/C++ TBAA"}
!8 = distinct !{!8, !9}
!9 = !{!"llvm.loop.mustprogress"}
!10 = !{!11, !11, i64 0}
!11 = !{!"double", !6, i64 0}
